; Function Attrs: nounwind uwtable
define range(i32 -1, 1) i32 @H5PTappend(i64 noundef %0, i64 noundef %1, ptr noundef %2) local_unnamed_addr #0 {
  %4 = load i32, ptr @H5PT_ptable_id_type, align 4, !tbaa !3
  %5 = tail call ptr @H5Iobject_verify(i64 noundef %0, i32 noundef %4) #7
  %6 = icmp eq ptr %5, null
  br i1 %6, label %20, label %7

7:                                                ; preds = %3
  %8 = icmp eq i64 %1, 0
  br i1 %8, label %20, label %9

9:                                                ; preds = %7
  %10 = load i64, ptr %5, align 8, !tbaa !14
  %11 = getelementptr inbounds nuw i8, ptr %5, i64 8
  %12 = load i64, ptr %11, align 8, !tbaa !16
  %13 = getelementptr inbounds nuw i8, ptr %5, i64 24
  %14 = load i64, ptr %13, align 8, !tbaa !21
  %15 = tail call i32 @H5TB_common_append_records(i64 noundef %10, i64 noundef %12, i64 noundef %1, i64 noundef %14, ptr noundef %2) #7
  %16 = icmp slt i32 %15, 0
  br i1 %16, label %20, label %17

17:                                               ; preds = %9
  %18 = load i64, ptr %13, align 8, !tbaa !21
  %19 = add i64 %18, %1
  store i64 %19, ptr %13, align 8, !tbaa !21
  br label %20

20:                                               ; preds = %3, %9, %7, %17
  %.0 = phi i32 [ 0, %17 ], [ 0, %7 ], [ -1, %9 ], [ -1, %3 ]
  ret i32 %.0
}